; Function Attrs: mustprogress uwtable
define void @_ZN7rocksdb24TimestampRecoveryHandler16MarkBeginPrepareEb(ptr dead_on_unwind noalias writable sret(%"class.rocksdb::Status") align 8 %0, ptr noundef nonnull readonly align 8 captures(none) dereferenceable(42) %1, i1 noundef zeroext %2) unnamed_addr #1 align 2 {
  %4 = alloca %"class.rocksdb::Slice", align 8
  %5 = alloca %"class.rocksdb::Slice", align 8
  br i1 %2, label %6, label %9

6:                                                ; preds = %3
  call void @llvm.lifetime.start.p0(i64 16, ptr nonnull %4) #18
  store ptr @.str.1, ptr %4, align 8, !tbaa !33
  %7 = getelementptr inbounds nuw i8, ptr %4, i64 8
  store i64 114, ptr %7, align 8, !tbaa !35
  call void @llvm.lifetime.start.p0(i64 16, ptr nonnull %5) #18
  store ptr @.str.8, ptr %5, align 8, !tbaa !33
  %8 = getelementptr inbounds nuw i8, ptr %5, i64 8
  store i64 0, ptr %8, align 8, !tbaa !35
  call void @_ZN7rocksdb6StatusC2ENS0_4CodeENS0_7SubCodeERKNS_5SliceES5_NS0_8SeverityE(ptr noundef nonnull align 8 dereferenceable(16) %0, i8 noundef zeroext 4, i8 noundef zeroext 0, ptr noundef nonnull align 8 dereferenceable(16) %4, ptr noundef nonnull align 8 dereferenceable(16) %5, i8 noundef zeroext 0)
  call void @llvm.lifetime.end.p0(i64 16, ptr nonnull %5) #18
  call void @llvm.lifetime.end.p0(i64 16, ptr nonnull %4) #18
  br label %15

9:                                                ; preds = %3
  %10 = getelementptr inbounds nuw i8, ptr %1, i64 32
  %11 = load ptr, ptr %10, align 8, !tbaa !23
  %12 = getelementptr inbounds nuw i8, ptr %1, i64 24
  %13 = load i8, ptr %12, align 8, !tbaa !11, !range !53, !noundef !54
  %14 = trunc nuw i8 %13 to i1
  tail call void @_ZN7rocksdb18WriteBatchInternal18InsertBeginPrepareEPNS_10WriteBatchEbb(ptr dead_on_unwind writable sret(%"class.rocksdb::Status") align 8 %0, ptr noundef %11, i1 noundef zeroext %14, i1 noundef zeroext false)
  br label %15

15:                                               ; preds = %9, %6
  ret void
}